target datalayout = "e-m:e-p270:32:32-p271:32:32-p272:64:64-i64:64-i128:128-f80:128-n8:16:32:64-S128"
target triple = "x86_64-pc-linux-gnu"

%struct.pdf_struct = type { ptr, i32, i32, i32, i32, i32, ptr, i64, ptr, i64, i64, i64, ptr, ptr, i32, i32, ptr, i32, ptr, i32, %struct.pdf_stats, ptr, i32, i32 }
%struct.pdf_stats = type { i32, i32, i32, i32, i32, i32, i32, i32, i32, i32, i32, i32, i32, i32, i32, i32, i32, i32, i32, i32, i32, i32, i32, i32, i32, ptr, ptr, ptr, ptr, ptr, ptr, ptr, ptr }
%struct.objstm_struct = type { i32, i32, i32, i32, i32, i32, ptr, i64 }
%struct.pdf_obj = type { i32, i64, i32, i32, i32, i32, [64 x i32], ptr, i64, ptr, ptr, i8 }
%struct.cli_ctx_tag = type { ptr, ptr, ptr, ptr, ptr, ptr, ptr, i64, ptr, i32, i32, ptr, i32, i32, ptr, [16 x i8], ptr, ptr, ptr, ptr, ptr, ptr, %struct.timeval, i8, i8 }
%struct.timeval = type { i64, i64 }
%struct.cl_scan_options = type { i32, i32, i32, i32, i32 }
%struct.pdf_array = type { ptr, ptr }
%struct.pdf_array_node = type { ptr, i64, i32, ptr, ptr }

@.str.94 = private unnamed_addr constant [9 x i8] c"PDFStats\00", align 1
@.str.285 = private unnamed_addr constant [6 x i8] c"/Kids\00", align 1
@.str.286 = private unnamed_addr constant [20 x i8] c"IncorrectPagesCount\00", align 1
@.str.287 = private unnamed_addr constant [7 x i8] c"/Count\00", align 1

; Function Attrs: nounwind uwtable
define internal void @Pages_cb(ptr noundef %0, ptr noundef %1, ptr noundef %2) #0 {
  %4 = alloca ptr, align 8
  %5 = alloca ptr, align 8
  %6 = alloca ptr, align 8
  %7 = alloca ptr, align 8
  %8 = alloca ptr, align 8
  %9 = alloca ptr, align 8
  %10 = alloca ptr, align 8
  %11 = alloca i64, align 8
  %12 = alloca i64, align 8
  %13 = alloca i64, align 8
  %14 = alloca ptr, align 8
  %15 = alloca ptr, align 8
  %16 = alloca i64, align 8
  store ptr %0, ptr %4, align 8
  store ptr %1, ptr %5, align 8
  store ptr %2, ptr %6, align 8
  store ptr null, ptr %7, align 8
  %17 = load ptr, ptr %5, align 8
  %18 = getelementptr inbounds %struct.pdf_obj, ptr %17, i32 0, i32 9
  %19 = load ptr, ptr %18, align 8
  %20 = icmp ne ptr %19, null
  br i1 %20, label %21, label %32

21:                                               ; preds = %3
  %22 = load ptr, ptr %5, align 8
  %23 = getelementptr inbounds %struct.pdf_obj, ptr %22, i32 0, i32 0
  %24 = load i32, ptr %23, align 8
  %25 = load ptr, ptr %5, align 8
  %26 = getelementptr inbounds %struct.pdf_obj, ptr %25, i32 0, i32 9
  %27 = load ptr, ptr %26, align 8
  %28 = getelementptr inbounds %struct.objstm_struct, ptr %27, i32 0, i32 6
  %29 = load ptr, ptr %28, align 8
  %30 = zext i32 %24 to i64
  %31 = getelementptr inbounds i8, ptr %29, i64 %30
  br label %41

32:                                               ; preds = %3
  %33 = load ptr, ptr %5, align 8
  %34 = getelementptr inbounds %struct.pdf_obj, ptr %33, i32 0, i32 0
  %35 = load i32, ptr %34, align 8
  %36 = load ptr, ptr %4, align 8
  %37 = getelementptr inbounds %struct.pdf_struct, ptr %36, i32 0, i32 8
  %38 = load ptr, ptr %37, align 8
  %39 = zext i32 %35 to i64
  %40 = getelementptr inbounds i8, ptr %38, i64 %39
  br label %41

41:                                               ; preds = %32, %21
  %42 = phi ptr [ %31, %21 ], [ %40, %32 ]
  store ptr %42, ptr %9, align 8
  store i64 0, ptr %11, align 8
  store i64 0, ptr %16, align 8
  %43 = load ptr, ptr %4, align 8
  %44 = icmp ne ptr %43, null
  br i1 %44, label %45, label %52

45:                                               ; preds = %41
  %46 = load ptr, ptr %4, align 8
  %47 = getelementptr inbounds %struct.pdf_struct, ptr %46, i32 0, i32 12
  %48 = load ptr, ptr %47, align 8
  %49 = getelementptr inbounds %struct.cli_ctx_tag, ptr %48, i32 0, i32 21
  %50 = load ptr, ptr %49, align 8
  %51 = icmp ne ptr %50, null
  br i1 %51, label %53, label %52

52:                                               ; preds = %45, %41
  br label %256

53:                                               ; preds = %45
  %54 = load ptr, ptr %4, align 8
  %55 = getelementptr inbounds %struct.pdf_struct, ptr %54, i32 0, i32 12
  %56 = load ptr, ptr %55, align 8
  store ptr %56, ptr %7, align 8
  %57 = load ptr, ptr %7, align 8
  %58 = getelementptr inbounds %struct.cli_ctx_tag, ptr %57, i32 0, i32 8
  %59 = load ptr, ptr %58, align 8
  %60 = getelementptr inbounds %struct.cl_scan_options, ptr %59, i32 0, i32 0
  %61 = load i32, ptr %60, align 4
  %62 = and i32 %61, 2
  %63 = icmp ne i32 %62, 0
  br i1 %63, label %65, label %64

64:                                               ; preds = %53
  br label %256

65:                                               ; preds = %53
  %66 = load ptr, ptr %4, align 8
  %67 = getelementptr inbounds %struct.pdf_struct, ptr %66, i32 0, i32 12
  %68 = load ptr, ptr %67, align 8
  %69 = getelementptr inbounds %struct.cli_ctx_tag, ptr %68, i32 0, i32 21
  %70 = load ptr, ptr %69, align 8
  %71 = call ptr @cli_jsonobj(ptr noundef %70, ptr noundef @.str.94)
  store ptr %71, ptr %15, align 8
  %72 = load ptr, ptr %15, align 8
  %73 = icmp ne ptr %72, null
  br i1 %73, label %75, label %74

74:                                               ; preds = %65
  br label %256

75:                                               ; preds = %65
  %76 = load ptr, ptr %9, align 8
  %77 = load ptr, ptr %5, align 8
  %78 = getelementptr inbounds %struct.pdf_obj, ptr %77, i32 0, i32 1
  %79 = load i64, ptr %78, align 8
  %80 = call ptr @cli_memstr(ptr noundef %76, i64 noundef %79, ptr noundef @.str.285, i64 noundef 5)
  store ptr %80, ptr %10, align 8
  %81 = load ptr, ptr %10, align 8
  %82 = icmp ne ptr %81, null
  br i1 %82, label %84, label %83

83:                                               ; preds = %75
  br label %256

84:                                               ; preds = %75
  %85 = load ptr, ptr %10, align 8
  %86 = getelementptr inbounds i8, ptr %85, i64 5
  store ptr %86, ptr %10, align 8
  %87 = load ptr, ptr %4, align 8
  %88 = getelementptr inbounds %struct.pdf_struct, ptr %87, i32 0, i32 23
  %89 = load i32, ptr %88, align 4
  %90 = add i32 %89, 1
  store i32 %90, ptr %88, align 4
  %91 = load ptr, ptr %4, align 8
  %92 = load ptr, ptr %5, align 8
  %93 = load ptr, ptr %5, align 8
  %94 = getelementptr inbounds %struct.pdf_obj, ptr %93, i32 0, i32 1
  %95 = load i64, ptr %94, align 8
  %96 = load ptr, ptr %10, align 8
  %97 = call ptr @pdf_parse_array(ptr noundef %91, ptr noundef %92, i64 noundef %95, ptr noundef %96, ptr noundef null)
  store ptr %97, ptr %8, align 8
  %98 = load ptr, ptr %4, align 8
  %99 = getelementptr inbounds %struct.pdf_struct, ptr %98, i32 0, i32 23
  %100 = load i32, ptr %99, align 4
  %101 = add i32 %100, -1
  store i32 %101, ptr %99, align 4
  %102 = load ptr, ptr %8, align 8
  %103 = icmp ne ptr %102, null
  br i1 %103, label %107, label %104

104:                                              ; preds = %84
  %105 = load ptr, ptr %15, align 8
  %106 = call i32 @cli_jsonbool(ptr noundef %105, ptr noundef @.str.286, i32 noundef 1)
  br label %256

107:                                              ; preds = %84
  %108 = load ptr, ptr %8, align 8
  %109 = getelementptr inbounds %struct.pdf_array, ptr %108, i32 0, i32 0
  %110 = load ptr, ptr %109, align 8
  store ptr %110, ptr %14, align 8
  br label %111

111:                                              ; preds = %130, %107
  %112 = load ptr, ptr %14, align 8
  %113 = icmp ne ptr %112, null
  br i1 %113, label %114, label %134

114:                                              ; preds = %111
  %115 = load ptr, ptr %14, align 8
  %116 = getelementptr inbounds %struct.pdf_array_node, ptr %115, i32 0, i32 1
  %117 = load i64, ptr %116, align 8
  %118 = icmp ne i64 %117, 0
  br i1 %118, label %119, label %129

119:                                              ; preds = %114
  %120 = load ptr, ptr %14, align 8
  %121 = getelementptr inbounds %struct.pdf_array_node, ptr %120, i32 0, i32 0
  %122 = load ptr, ptr %121, align 8
  %123 = call ptr @strchr(ptr noundef %122, i32 noundef 82) #13
  %124 = icmp ne ptr %123, null
  br i1 %124, label %125, label %128

125:                                              ; preds = %119
  %126 = load i64, ptr %11, align 8
  %127 = add i64 %126, 1
  store i64 %127, ptr %11, align 8
  br label %128

128:                                              ; preds = %125, %119
  br label %129

129:                                              ; preds = %128, %114
  br label %130

130:                                              ; preds = %129
  %131 = load ptr, ptr %14, align 8
  %132 = getelementptr inbounds %struct.pdf_array_node, ptr %131, i32 0, i32 4
  %133 = load ptr, ptr %132, align 8
  store ptr %133, ptr %14, align 8
  br label %111

134:                                              ; preds = %111
  %135 = load ptr, ptr %9, align 8
  %136 = load ptr, ptr %5, align 8
  %137 = getelementptr inbounds %struct.pdf_obj, ptr %136, i32 0, i32 1
  %138 = load i64, ptr %137, align 8
  %139 = call ptr @cli_memstr(ptr noundef %135, i64 noundef %138, ptr noundef @.str.287, i64 noundef 6)
  store ptr %139, ptr %10, align 8
  %140 = load ptr, ptr %10, align 8
  %141 = icmp ne ptr %140, null
  br i1 %141, label %145, label %142

142:                                              ; preds = %134
  %143 = load ptr, ptr %15, align 8
  %144 = call i32 @cli_jsonbool(ptr noundef %143, ptr noundef @.str.286, i32 noundef 1)
  br label %254

145:                                              ; preds = %134
  %146 = load ptr, ptr %10, align 8
  %147 = getelementptr inbounds i8, ptr %146, i64 6
  store ptr %147, ptr %10, align 8
  br label %148

148:                                              ; preds = %173, %145
  %149 = load ptr, ptr %10, align 8
  %150 = load ptr, ptr %9, align 8
  %151 = ptrtoint ptr %149 to i64
  %152 = ptrtoint ptr %150 to i64
  %153 = sub i64 %151, %152
  %154 = load ptr, ptr %5, align 8
  %155 = getelementptr inbounds %struct.pdf_obj, ptr %154, i32 0, i32 1
  %156 = load i64, ptr %155, align 8
  %157 = icmp ult i64 %153, %156
  br i1 %157, label %158, label %171

158:                                              ; preds = %148
  %159 = call ptr @__ctype_b_loc() #10
  %160 = load ptr, ptr %159, align 8
  %161 = load ptr, ptr %10, align 8
  %162 = getelementptr inbounds i8, ptr %161, i64 0
  %163 = load i8, ptr %162, align 1
  %164 = sext i8 %163 to i32
  %165 = sext i32 %164 to i64
  %166 = getelementptr inbounds i16, ptr %160, i64 %165
  %167 = load i16, ptr %166, align 2
  %168 = zext i16 %167 to i32
  %169 = and i32 %168, 8192
  %170 = icmp ne i32 %169, 0
  br label %171

171:                                              ; preds = %158, %148
  %172 = phi i1 [ false, %148 ], [ %170, %158 ]
  br i1 %172, label %173, label %176

173:                                              ; preds = %171
  %174 = load ptr, ptr %10, align 8
  %175 = getelementptr inbounds i8, ptr %174, i32 1
  store ptr %175, ptr %10, align 8
  br label %148

176:                                              ; preds = %171
  %177 = load ptr, ptr %10, align 8
  %178 = load ptr, ptr %9, align 8
  %179 = ptrtoint ptr %177 to i64
  %180 = ptrtoint ptr %178 to i64
  %181 = sub i64 %179, %180
  %182 = load ptr, ptr %5, align 8
  %183 = getelementptr inbounds %struct.pdf_obj, ptr %182, i32 0, i32 1
  %184 = load i64, ptr %183, align 8
  %185 = icmp uge i64 %181, %184
  br i1 %185, label %186, label %187

186:                                              ; preds = %176
  br label %254

187:                                              ; preds = %176
  %188 = load ptr, ptr %5, align 8
  %189 = getelementptr inbounds %struct.pdf_obj, ptr %188, i32 0, i32 9
  %190 = load ptr, ptr %189, align 8
  %191 = icmp ne ptr %190, null
  br i1 %191, label %192, label %211

192:                                              ; preds = %187
  %193 = load ptr, ptr %5, align 8
  %194 = getelementptr inbounds %struct.pdf_obj, ptr %193, i32 0, i32 0
  %195 = load i32, ptr %194, align 8
  %196 = load ptr, ptr %5, align 8
  %197 = getelementptr inbounds %struct.pdf_obj, ptr %196, i32 0, i32 9
  %198 = load ptr, ptr %197, align 8
  %199 = getelementptr inbounds %struct.objstm_struct, ptr %198, i32 0, i32 6
  %200 = load ptr, ptr %199, align 8
  %201 = zext i32 %195 to i64
  %202 = getelementptr inbounds i8, ptr %200, i64 %201
  %203 = load ptr, ptr %5, align 8
  %204 = getelementptr inbounds %struct.pdf_obj, ptr %203, i32 0, i32 1
  %205 = load i64, ptr %204, align 8
  %206 = getelementptr inbounds i8, ptr %202, i64 %205
  %207 = load ptr, ptr %10, align 8
  %208 = ptrtoint ptr %206 to i64
  %209 = ptrtoint ptr %207 to i64
  %210 = sub i64 %208, %209
  br label %228

211:                                              ; preds = %187
  %212 = load ptr, ptr %5, align 8
  %213 = getelementptr inbounds %struct.pdf_obj, ptr %212, i32 0, i32 0
  %214 = load i32, ptr %213, align 8
  %215 = load ptr, ptr %4, align 8
  %216 = getelementptr inbounds %struct.pdf_struct, ptr %215, i32 0, i32 8
  %217 = load ptr, ptr %216, align 8
  %218 = zext i32 %214 to i64
  %219 = getelementptr inbounds i8, ptr %217, i64 %218
  %220 = load ptr, ptr %5, align 8
  %221 = getelementptr inbounds %struct.pdf_obj, ptr %220, i32 0, i32 1
  %222 = load i64, ptr %221, align 8
  %223 = getelementptr inbounds i8, ptr %219, i64 %222
  %224 = load ptr, ptr %10, align 8
  %225 = ptrtoint ptr %223 to i64
  %226 = ptrtoint ptr %224 to i64
  %227 = sub i64 %225, %226
  br label %228

228:                                              ; preds = %211, %192
  %229 = phi i64 [ %210, %192 ], [ %227, %211 ]
  store i64 %229, ptr %16, align 8
  %230 = load ptr, ptr %10, align 8
  %231 = load i64, ptr %16, align 8
  %232 = call i32 @cli_strntol_wrap(ptr noundef %230, i64 noundef %231, i32 noundef 0, i32 noundef 10, ptr noundef %13)
  %233 = icmp ne i32 0, %232
  br i1 %233, label %234, label %237

234:                                              ; preds = %228
  %235 = load ptr, ptr %15, align 8
  %236 = call i32 @cli_jsonbool(ptr noundef %235, ptr noundef @.str.286, i32 noundef 1)
  br label %253

237:                                              ; preds = %228
  %238 = load i64, ptr %13, align 8
  %239 = icmp slt i64 %238, 0
  br i1 %239, label %240, label %243

240:                                              ; preds = %237
  %241 = load ptr, ptr %15, align 8
  %242 = call i32 @cli_jsonbool(ptr noundef %241, ptr noundef @.str.286, i32 noundef 1)
  br label %252

243:                                              ; preds = %237
  %244 = load i64, ptr %13, align 8
  store i64 %244, ptr %12, align 8
  %245 = load i64, ptr %12, align 8
  %246 = load i64, ptr %11, align 8
  %247 = icmp ne i64 %245, %246
  br i1 %247, label %248, label %251

248:                                              ; preds = %243
  %249 = load ptr, ptr %15, align 8
  %250 = call i32 @cli_jsonbool(ptr noundef %249, ptr noundef @.str.286, i32 noundef 1)
  br label %251

251:                                              ; preds = %248, %243
  br label %252

252:                                              ; preds = %251, %240
  br label %253

253:                                              ; preds = %252, %234
  br label %254

254:                                              ; preds = %253, %186, %142
  %255 = load ptr, ptr %8, align 8
  call void @pdf_free_array(ptr noundef %255)
  br label %256

256:                                              ; preds = %254, %104, %83, %74, %64, %52
  ret void
}