; Function Attrs: nounwind uwtable
define internal void @Pages_cb(ptr noundef %0, ptr noundef %1, ptr nocapture readnone %2) #0 {
  %4 = alloca i64, align 8
  %5 = getelementptr inbounds i8, ptr %1, i64 304
  %6 = load ptr, ptr %5, align 8
  %.not = icmp eq ptr %6, null
  %7 = load i32, ptr %1, align 8
  %8 = zext i32 %7 to i64
  br i1 %.not, label %.thread, label %10

.thread:                                          ; preds = %3
  %9 = getelementptr inbounds i8, ptr %0, i64 48
  br label %12

10:                                               ; preds = %3
  %11 = getelementptr inbounds i8, ptr %6, i64 24
  %.not70 = icmp eq ptr %0, null
  br i1 %.not70, label %95, label %12

12:                                               ; preds = %.thread, %10
  %.pn103.in = phi ptr [ %9, %.thread ], [ %11, %10 ]
  %.pn103 = load ptr, ptr %.pn103.in, align 8
  %13 = getelementptr inbounds i8, ptr %.pn103, i64 %8
  %14 = getelementptr inbounds i8, ptr %0, i64 80
  %15 = load ptr, ptr %14, align 8
  %16 = getelementptr inbounds i8, ptr %15, i64 160
  %17 = load ptr, ptr %16, align 8
  %.not71 = icmp eq ptr %17, null
  br i1 %.not71, label %95, label %18

18:                                               ; preds = %12
  %19 = getelementptr inbounds i8, ptr %15, i64 64
  %20 = load ptr, ptr %19, align 8
  %21 = load i32, ptr %20, align 4
  %22 = and i32 %21, 2
  %.not72 = icmp eq i32 %22, 0
  br i1 %.not72, label %95, label %23

23:                                               ; preds = %18
  %24 = tail call ptr @cli_jsonobj(ptr noundef nonnull %17, ptr noundef nonnull @.str.94) #22
  %.not73 = icmp eq ptr %24, null
  br i1 %.not73, label %95, label %25

25:                                               ; preds = %23
  %26 = getelementptr inbounds i8, ptr %1, i64 8
  %27 = load i64, ptr %26, align 8
  %28 = tail call ptr @cli_memstr(ptr noundef %13, i64 noundef %27, ptr noundef nonnull @.str.285, i64 noundef 5) #22
  %.not74 = icmp eq ptr %28, null
  br i1 %.not74, label %95, label %29

29:                                               ; preds = %25
  %30 = getelementptr inbounds i8, ptr %28, i64 5
  %31 = getelementptr inbounds i8, ptr %0, i64 316
  %32 = load i32, ptr %31, align 4
  %33 = add i32 %32, 1
  store i32 %33, ptr %31, align 4
  %34 = load i64, ptr %26, align 8
  %35 = tail call ptr @pdf_parse_array(ptr noundef nonnull %0, ptr noundef nonnull %1, i64 noundef %34, ptr noundef nonnull %30, ptr noundef null) #22
  %36 = load i32, ptr %31, align 4
  %37 = add i32 %36, -1
  store i32 %37, ptr %31, align 4
  %.not75 = icmp eq ptr %35, null
  br i1 %.not75, label %38, label %.preheader

.preheader:                                       ; preds = %29
  %.091 = load ptr, ptr %35, align 8
  %.not7692 = icmp eq ptr %.091, null
  br i1 %.not7692, label %._crit_edge, label %.lr.ph

38:                                               ; preds = %29
  %39 = tail call i32 @cli_jsonbool(ptr noundef nonnull %24, ptr noundef nonnull @.str.286, i32 noundef 1) #22
  br label %95

.lr.ph:                                           ; preds = %.preheader, %46
  %.094 = phi ptr [ %.0, %46 ], [ %.091, %.preheader ]
  %.05993 = phi i64 [ %.1, %46 ], [ 0, %.preheader ]
  %40 = getelementptr inbounds i8, ptr %.094, i64 8
  %41 = load i64, ptr %40, align 8
  %.not84 = icmp eq i64 %41, 0
  br i1 %.not84, label %46, label %42

42:                                               ; preds = %.lr.ph
  %43 = load ptr, ptr %.094, align 8
  %44 = tail call ptr @strchr(ptr noundef nonnull dereferenceable(1) %43, i32 noundef 82) #26
  %.not85 = icmp ne ptr %44, null
  %45 = zext i1 %.not85 to i64
  %spec.select = add i64 %.05993, %45
  br label %46

46:                                               ; preds = %42, %.lr.ph
  %.1 = phi i64 [ %.05993, %.lr.ph ], [ %spec.select, %42 ]
  %47 = getelementptr inbounds i8, ptr %.094, i64 32
  %.0 = load ptr, ptr %47, align 8
  %.not76 = icmp eq ptr %.0, null
  br i1 %.not76, label %._crit_edge, label %.lr.ph

._crit_edge:                                      ; preds = %46, %.preheader
  %.059.lcssa = phi i64 [ 0, %.preheader ], [ %.1, %46 ]
  %48 = load i64, ptr %26, align 8
  %49 = tail call ptr @cli_memstr(ptr noundef %13, i64 noundef %48, ptr noundef nonnull @.str.287, i64 noundef 6) #22
  %.not77 = icmp eq ptr %49, null
  br i1 %.not77, label %50, label %52

50:                                               ; preds = %._crit_edge
  %51 = tail call i32 @cli_jsonbool(ptr noundef nonnull %24, ptr noundef nonnull @.str.286, i32 noundef 1) #22
  br label %.critedge

52:                                               ; preds = %._crit_edge
  %53 = getelementptr inbounds i8, ptr %49, i64 6
  %54 = ptrtoint ptr %13 to i64
  %55 = load i64, ptr %26, align 8
  %56 = ptrtoint ptr %53 to i64
  %57 = sub i64 %56, %54
  %58 = icmp ult i64 %57, %55
  br i1 %58, label %.lr.ph97, label %.critedge

.lr.ph97:                                         ; preds = %52
  %59 = tail call ptr @__ctype_b_loc() #24
  %60 = load ptr, ptr %59, align 8
  %61 = load i8, ptr %53, align 1
  %62 = sext i8 %61 to i64
  %63 = getelementptr inbounds i16, ptr %60, i64 %62
  %64 = load i16, ptr %63, align 2
  %65 = and i16 %64, 8192
  %.not78106 = icmp eq i16 %65, 0
  br i1 %.not78106, label %._crit_edge109, label %.lr.ph108

66:                                               ; preds = %.lr.ph108
  %67 = load i8, ptr %72, align 1
  %68 = sext i8 %67 to i64
  %69 = getelementptr inbounds i16, ptr %60, i64 %68
  %70 = load i16, ptr %69, align 2
  %71 = and i16 %70, 8192
  %.not78 = icmp eq i16 %71, 0
  br i1 %.not78, label %._crit_edge109, label %.lr.ph108

.lr.ph108:                                        ; preds = %.lr.ph97, %66
  %.05895107 = phi ptr [ %72, %66 ], [ %53, %.lr.ph97 ]
  %72 = getelementptr inbounds i8, ptr %.05895107, i64 1
  %73 = ptrtoint ptr %72 to i64
  %74 = sub i64 %73, %54
  %75 = icmp ult i64 %74, %55
  br i1 %75, label %66, label %.critedge

._crit_edge109:                                   ; preds = %66, %.lr.ph97
  %.lcssa = phi i64 [ %56, %.lr.ph97 ], [ %73, %66 ]
  %.05895.lcssa = phi ptr [ %53, %.lr.ph97 ], [ %72, %66 ]
  %76 = load ptr, ptr %5, align 8
  %.not80 = icmp eq ptr %76, null
  %77 = load i32, ptr %1, align 8
  %78 = zext i32 %77 to i64
  %79 = getelementptr inbounds i8, ptr %0, i64 48
  %80 = getelementptr inbounds i8, ptr %76, i64 24
  %.sink102 = select i1 %.not80, ptr %79, ptr %80
  %81 = load ptr, ptr %.sink102, align 8
  %82 = getelementptr inbounds i8, ptr %81, i64 %78
  %.pn.in = getelementptr inbounds i8, ptr %82, i64 %55
  %.pn = ptrtoint ptr %.pn.in to i64
  %83 = sub i64 %.pn, %.lcssa
  %84 = call i32 @cli_strntol_wrap(ptr noundef nonnull %.05895.lcssa, i64 noundef %83, i32 noundef 0, i32 noundef 10, ptr noundef nonnull %4) #22
  %.not82 = icmp eq i32 %84, 0
  br i1 %.not82, label %87, label %85

85:                                               ; preds = %._crit_edge109
  %86 = call i32 @cli_jsonbool(ptr noundef nonnull %24, ptr noundef nonnull @.str.286, i32 noundef 1) #22
  br label %.critedge

87:                                               ; preds = %._crit_edge109
  %88 = load i64, ptr %4, align 8
  %89 = icmp slt i64 %88, 0
  br i1 %89, label %90, label %92

90:                                               ; preds = %87
  %91 = call i32 @cli_jsonbool(ptr noundef nonnull %24, ptr noundef nonnull @.str.286, i32 noundef 1) #22
  br label %.critedge

92:                                               ; preds = %87
  %.not83 = icmp eq i64 %88, %.059.lcssa
  br i1 %.not83, label %.critedge, label %93

93:                                               ; preds = %92
  %94 = call i32 @cli_jsonbool(ptr noundef nonnull %24, ptr noundef nonnull @.str.286, i32 noundef 1) #22
  br label %.critedge

.critedge:                                        ; preds = %.lr.ph108, %52, %85, %92, %93, %90, %50
  call void @pdf_free_array(ptr noundef nonnull %35) #22
  br label %95

95:                                               ; preds = %25, %23, %18, %10, %12, %.critedge, %38
  ret void
}